Certificate:
    Data:
        Version: 3 (0x2)
        Serial Number:
            09:4f:64:d9:8f:15:7e:9f:c3:b2:27:53:d5:4f:89:0f
    Signature Algorithm: sha256WithRSAEncryption
        Issuer: C=US, O=DigiCert Inc, CN=DigiCert SHA2 Secure Server CA
        Validity
            Not Before: Dec  2 00:00:00 2014 GMT
            Not After : Oct 20 12:00:00 2015 GMT
        Subject: C=LU, L=Luxembourg, O=Blockchain Luxembourg S.A.R.L, CN=cert-001.blockchain.info
        Subject Public Key Info:
            Public Key Algorithm: rsaEncryption
                Public-Key: (2048 bit)
                Modulus:
                    00:b6:58:e1:d5:4d:44:35:b3:66:03:26:53:64:54:
                    ea:89:c0:5f:07:b3:1c:c9:18:9f:90:8d:ea:29:16:
                    a2:a1:b5:d7:3d:1c:81:b7:7a:22:bb:da:44:df:b2:
                    09:f4:c9:66:bb:91:7f:09:27:d5:b6:7e:64:87:63:
                    f6:47:1b:4e:16:f6:3b:8a:b0:02:1b:7e:f9:f8:57:
                    d7:20:4f:c0:20:51:b2:f3:c9:eb:49:c3:75:5c:3c:
                    7c:f2:39:58:92:27:03:67:03:d9:bd:cc:09:4c:de:
                    81:1f:60:06:6e:a5:1c:d0:d1:d0:47:6c:2b:5c:1e:
                    eb:62:2c:76:9f:5b:45:e1:55:e8:df:47:27:48:3b:
                    39:36:21:15:d3:3c:2f:45:68:80:07:c3:b6:73:f0:
                    c2:6d:2e:d5:83:cc:8b:7e:9e:96:17:c3:a4:43:90:
                    75:80:ed:94:7f:8b:c8:f1:14:af:88:10:f3:df:9f:
                    f0:7a:f5:fe:04:1f:7a:83:31:39:43:9d:4f:ee:25:
                    0f:d5:e7:83:67:d5:15:76:e7:af:28:98:d3:e3:6c:
                    fd:0a:84:28:a9:50:cc:04:c8:44:c8:9f:3a:54:be:
                    ac:fd:6f:b9:57:a5:ba:82:5e:ad:84:7c:a9:e5:50:
                    08:f8:8a:2d:86:00:1e:5e:a7:ee:21:37:a0:75:cc:
                    e4:5f
                Exponent: 65537 (0x10001)
        X509v3 extensions:
            X509v3 Authority Key Identifier: 
                keyid:0F:80:61:1C:82:31:61:D5:2F:28:E7:8D:46:38:B4:2C:E1:C6:D9:E2

            X509v3 Subject Key Identifier: 
                51:01:CD:B5:1E:92:E7:01:25:0A:50:FE:22:CB:77:9B:F7:29:3C:3C
            X509v3 Subject Alternative Name: 
                DNS:cert-001.blockchain.info, DNS:blockchain.info, DNS:www.blockchain.info, DNS:markets.blockchain.info, DNS:rpc.blockchain.info, DNS:ws.blockchain.info, DNS:merchant-directory.blockchain.info, DNS:blockchainbdgpzk.onion, DNS:blockchatvqztbll.onion
            X509v3 Key Usage: critical
                Digital Signature, Key Encipherment
            X509v3 Extended Key Usage: 
                TLS Web Server Authentication, TLS Web Client Authentication
            X509v3 CRL Distribution Points: 

                Full Name:
                  URI:http://crl3.digicert.com/ssca-sha2-g3.crl

                Full Name:
                  URI:http://crl4.digicert.com/ssca-sha2-g3.crl

            X509v3 Certificate Policies: 
                Policy: 2.16.840.1.114412.1.1
                  CPS: https://www.digicert.com/CPS

            Authority Information Access: 
                OCSP - URI:http://ocsp.digicert.com
                CA Issuers - URI:http://cacerts.digicert.com/DigiCertSHA2SecureServerCA.crt

            X509v3 Basic Constraints: critical
                CA:FALSE
    Signature Algorithm: sha256WithRSAEncryption
         a7:c5:36:ce:de:4c:77:d7:0d:fe:dd:7f:b5:48:8b:7b:14:08:
         0e:09:36:d9:a4:ee:d8:96:2e:89:1c:23:31:2b:95:ae:fd:b0:
         ac:35:0e:dc:dc:9b:75:dd:6c:57:92:89:dd:87:93:4b:e4:5a:
         c2:1e:86:67:14:34:fb:36:b0:5f:a3:17:07:f1:d8:ee:87:ef:
         14:62:55:71:7e:ec:e4:e5:3f:05:9f:83:3c:0f:ea:1a:33:1c:
         46:f8:22:36:a8:fc:32:6c:e0:26:a0:56:8c:0e:76:f7:a7:7a:
         d1:55:5a:dd:67:b2:7e:c7:24:c5:05:30:da:50:78:e0:fc:00:
         a2:cb:99:26:04:9d:0a:d9:f9:f6:b4:88:1e:45:9d:2f:b7:09:
         29:f5:45:b6:11:36:0f:df:ef:de:ab:5a:89:ed:45:a5:d8:b4:
         75:49:3b:fa:3f:b4:38:7c:a7:75:ab:fd:7d:28:93:d5:93:76:
         d0:55:95:66:39:05:44:4c:02:9a:77:64:13:8f:e9:c4:01:d2:
         fd:3b:b0:27:a8:2d:65:f5:00:0f:9e:25:b1:2b:b3:fa:ec:d4:
         bc:3f:b0:67:be:96:08:7d:bd:1a:bf:dd:9a:15:c8:1f:61:19:
         78:df:fa:26:14:35:4c:12:f9:4a:f7:52:24:46:27:81:91:8a:
         b5:e5:9e:ad


-----BEGIN CERTIFICATE-----
MIIF2jCCBMKgAwIBAgIQCU9k2Y8Vfp/DsidT1U+JDzANBgkqhkiG9w0BAQsFADBN
MQswCQYDVQQGEwJVUzEVMBMGA1UEChMMRGlnaUNlcnQgSW5jMScwJQYDVQQDEx5E
aWdpQ2VydCBTSEEyIFNlY3VyZSBTZXJ2ZXIgQ0EwHhcNMTQxMjAyMDAwMDAwWhcN
MTUxMDIwMTIwMDAwWjBtMQswCQYDVQQGEwJMVTETMBEGA1UEBxMKTHV4ZW1ib3Vy
ZzEmMCQGA1UEChMdQmxvY2tjaGFpbiBMdXhlbWJvdXJnIFMuQS5SLkwxITAfBgNV
BAMTGGNlcnQtMDAxLmJsb2NrY2hhaW4uaW5mbzCCASIwDQYJKoZIhvcNAQEBBQAD
ggEPADCCAQoCggEBALZY4dVNRDWzZgMmU2RU6onAXwezHMkYn5CN6ikWoqG11z0c
gbd6IrvaRN+yCfTJZruRfwkn1bZ+ZIdj9kcbThb2O4qwAht++fhX1yBPwCBRsvPJ
60nDdVw8fPI5WJInA2cD2b3MCUzegR9gBm6lHNDR0EdsK1we62Isdp9bReFV6N9H
J0g7OTYhFdM8L0VogAfDtnPwwm0u1YPMi36elhfDpEOQdYDtlH+LyPEUr4gQ89+f
8Hr1/gQfeoMxOUOdT+4lD9Xng2fVFXbnryiY0+Ns/QqEKKlQzATIRMifOlS+rP1v
uVeluoJerYR8qeVQCPiKLYYAHl6n7iE3oHXM5F8CAwEAAaOCApQwggKQMB8GA1Ud
IwQYMBaAFA+AYRyCMWHVLyjnjUY4tCzhxtniMB0GA1UdDgQWBBRRAc21HpLnASUK
UP4iy3eb9yk8PDCB4QYDVR0RBIHZMIHWghhjZXJ0LTAwMS5ibG9ja2NoYWluLmlu
Zm+CD2Jsb2NrY2hhaW4uaW5mb4ITd3d3LmJsb2NrY2hhaW4uaW5mb4IXbWFya2V0
cy5ibG9ja2NoYWluLmluZm+CE3JwYy5ibG9ja2NoYWluLmluZm+CEndzLmJsb2Nr
Y2hhaW4uaW5mb4IibWVyY2hhbnQtZGlyZWN0b3J5LmJsb2NrY2hhaW4uaW5mb4IW
YmxvY2tjaGFpbmJkZ3B6ay5vbmlvboIWYmxvY2tjaGF0dnF6dGJsbC5vbmlvbjAO
BgNVHQ8BAf8EBAMCBaAwHQYDVR0lBBYwFAYIKwYBBQUHAwEGCCsGAQUFBwMCMGsG
A1UdHwRkMGIwL6AtoCuGKWh0dHA6Ly9jcmwzLmRpZ2ljZXJ0LmNvbS9zc2NhLXNo
YTItZzMuY3JsMC+gLaArhilodHRwOi8vY3JsNC5kaWdpY2VydC5jb20vc3NjYS1z
aGEyLWczLmNybDBCBgNVHSAEOzA5MDcGCWCGSAGG/WwBATAqMCgGCCsGAQUFBwIB
FhxodHRwczovL3d3dy5kaWdpY2VydC5jb20vQ1BTMHwGCCsGAQUFBwEBBHAwbjAk
BggrBgEFBQcwAYYYaHR0cDovL29jc3AuZGlnaWNlcnQuY29tMEYGCCsGAQUFBzAC
hjpodHRwOi8vY2FjZXJ0cy5kaWdpY2VydC5jb20vRGlnaUNlcnRTSEEyU2VjdXJl
U2VydmVyQ0EuY3J0MAwGA1UdEwEB/wQCMAAwDQYJKoZIhvcNAQELBQADggEBAKfF
Ns7eTHfXDf7df7VIi3sUCA4JNtmk7tiWLokcIzErla79sKw1Dtzcm3XdbFeSid2H
k0vkWsIehmcUNPs2sF+jFwfx2O6H7xRiVXF+7OTlPwWfgzwP6hozHEb4Ijao/DJs
4CagVowOdvenetFVWt1nsn7HJMUFMNpQeOD8AKLLmSYEnQrZ+fa0iB5FnS+3CSn1
RbYRNg/f796rWontRaXYtHVJO/o/tDh8p3Wr/X0ok9WTdtBVlWY5BURMApp3ZBOP
6cQB0v07sCeoLWX1AA+eJbErs/rs1Lw/sGe+lgh9vRq/3ZoVyB9hGXjf+iYUNUwS
+Ur3UiRGJ4GRirXlnq0=
-----END CERTIFICATE-----
